; Function Attrs: mustprogress uwtable
define internal fastcc void @_ZN12_GLOBAL__N_115FmcombineWorkerC2EPN5Yosys5RTLIL6DesignENS2_8IdStringERKNS_6opts_tE(ptr noundef nonnull align 8 dereferenceable(40) %0, ptr noundef nonnull %1, ptr noundef nonnull %2, ptr noundef nonnull align 1 dereferenceable(5) %3) unnamed_addr #4 align 2 personality ptr @__gxx_personality_v0 {
  %5 = alloca %"class.std::__cxx11::basic_string", align 8
  store ptr %3, ptr %0, align 8
  %6 = getelementptr inbounds i8, ptr %0, i64 8
  store ptr %1, ptr %6, align 8
  %7 = getelementptr inbounds i8, ptr %0, i64 16
  %8 = tail call noundef ptr @_ZN5Yosys5RTLIL6Design6moduleERKNS0_8IdStringE(ptr noundef nonnull align 8 dereferenceable(376) %1, ptr noundef nonnull align 4 dereferenceable(4) %2)
  store ptr %8, ptr %7, align 8
  %9 = getelementptr inbounds i8, ptr %0, i64 24
  store ptr null, ptr %9, align 8
  %10 = getelementptr inbounds i8, ptr %0, i64 32
  %11 = load i32, ptr %2, align 4
  %.not.i.i = icmp eq i32 %11, 0
  br i1 %.not.i.i, label %_ZN5Yosys5RTLIL8IdStringC2ERKS1_.exit, label %12

12:                                               ; preds = %4
  %13 = sext i32 %11 to i64
  %14 = load ptr, ptr @_ZN5Yosys5RTLIL8IdString24global_refcount_storage_E, align 8
  %15 = getelementptr inbounds i32, ptr %14, i64 %13
  %16 = load i32, ptr %15, align 4
  %17 = add nsw i32 %16, 1
  store i32 %17, ptr %15, align 4
  br label %_ZN5Yosys5RTLIL8IdStringC2ERKS1_.exit

_ZN5Yosys5RTLIL8IdStringC2ERKS1_.exit:            ; preds = %4, %12
  store i32 %11, ptr %10, align 8
  %18 = load i32, ptr %2, align 4
  %19 = sext i32 %18 to i64
  %20 = load ptr, ptr getelementptr inbounds (%"class.std::vector.136", ptr @_ZN5Yosys5RTLIL8IdString18global_id_storage_E, i64 0, i32 0, i32 0, i32 0, i32 1), align 8
  %21 = load ptr, ptr @_ZN5Yosys5RTLIL8IdString18global_id_storage_E, align 8
  %22 = ptrtoint ptr %20 to i64
  %23 = ptrtoint ptr %21 to i64
  %24 = sub i64 %22, %23
  %25 = ashr exact i64 %24, 3
  %.not.i.i.i = icmp ugt i64 %25, %19
  br i1 %.not.i.i.i, label %27, label %26

26:                                               ; preds = %_ZN5Yosys5RTLIL8IdStringC2ERKS1_.exit
  invoke void (ptr, ...) @_ZSt24__throw_out_of_range_fmtPKcz(ptr noundef nonnull @.str.53, i64 noundef %19, i64 noundef %25) #22
          to label %.noexc unwind label %35

.noexc:                                           ; preds = %26
  unreachable

27:                                               ; preds = %_ZN5Yosys5RTLIL8IdStringC2ERKS1_.exit
  %28 = getelementptr inbounds ptr, ptr %21, i64 %19
  %29 = load ptr, ptr %28, align 8
  invoke void (ptr, ptr, ...) @_ZN5Yosys7stringfB5cxx11EPKcz(ptr dead_on_unwind nonnull writable sret(%"class.std::__cxx11::basic_string") align 8 %5, ptr noundef nonnull @.str.56, ptr noundef %29)
          to label %30 unwind label %35

30:                                               ; preds = %27
  %31 = call noundef ptr @_ZNKSt7__cxx1112basic_stringIcSt11char_traitsIcESaIcEE5c_strEv(ptr noundef nonnull align 8 dereferenceable(32) %5) #20
  %32 = invoke noundef i32 @_ZN5Yosys5RTLIL8IdString13get_referenceEPKc(ptr noundef %31)
          to label %33 unwind label %37

33:                                               ; preds = %30
  %34 = getelementptr inbounds i8, ptr %0, i64 36
  store i32 %32, ptr %34, align 4
  call void @_ZNSt7__cxx1112basic_stringIcSt11char_traitsIcESaIcEED1Ev(ptr noundef nonnull align 8 dereferenceable(32) %5) #20
  ret void

35:                                               ; preds = %26, %27
  %36 = landingpad { ptr, i32 }
          cleanup
  br label %39

37:                                               ; preds = %30
  %38 = landingpad { ptr, i32 }
          cleanup
  call void @_ZNSt7__cxx1112basic_stringIcSt11char_traitsIcESaIcEED1Ev(ptr noundef nonnull align 8 dereferenceable(32) %5) #20
  br label %39

39:                                               ; preds = %37, %35
  %.pn = phi { ptr, i32 } [ %38, %37 ], [ %36, %35 ]
  call void @_ZN5Yosys5RTLIL8IdStringD2Ev(ptr noundef nonnull align 4 dereferenceable(4) %10) #20
  resume { ptr, i32 } %.pn
}